(dp0
S'S3E_ANDROID'
p1
NsS'I3D_OS_LINUX'
p2
NsS'IW_SDK'
p3
NsS'IW_PLATFORM_LINUX'
p4
NsS'I3D_ARCH_ARM'
p5
NsS'IW_MKF_HEYZAP_BUILD'
p6
NsS'IW_USE_ASSERTIONS'
p7
NsS'IW_TRACE_CHANNEL_HEYZAP_VERBOSE'
p8
S'2'
p9
sS'IW_USE_TRACING'
p10
NsS'IW_ASSERTION_CHANNEL_HEYZAP'
p11
S'1'
p12
sS'S3E_BUILD_EXT'
p13
NsS'IW_MKF_S3E_DEFAULT'
p14
NsS'S3E_EXT_HEYZAP'
p15
NsS'IW_MKF_EDK'
p16
NsS'I3D_PLATFORM_LINUX'
p17
NsS'IW_DEBUG'
p18
NsS'ANDROID'
p19
NsS'IW_TRACE_CHANNEL_HEYZAP'
p20
g12
s.